	.section	__TEXT,__text,regular,pure_instructions
	.macosx_version_min 10, 13
	.globl	_main                   ## -- Begin function main
	.p2align	4, 0x90
_main:                                  ## @main
	.cfi_startproc
## BB#0:
	pushq	%rbp
Lcfi0:
	.cfi_def_cfa_offset 16
Lcfi1:
	.cfi_offset %rbp, -16
	movq	%rsp, %rbp
Lcfi2:
	.cfi_def_cfa_register %rbp
	xorl	%eax, %eax
	movl	$0, -4(%rbp)
	movl	%edi, -8(%rbp)
	movq	%rsi, -16(%rbp)
	popq	%rbp
	retq
	.cfi_endproc
                                        ## -- End function
	.globl	__start                 ## -- Begin function _start
	.p2align	4, 0x90
__start:                                ## @_start
	.cfi_startproc
## BB#0:
	pushq	%rbp
Lcfi3:
	.cfi_def_cfa_offset 16
Lcfi4:
	.cfi_offset %rbp, -16
	movq	%rsp, %rbp
Lcfi5:
	.cfi_def_cfa_register %rbp
	subq	$16, %rsp
	xorl	%eax, %eax
	xorl	%ecx, %ecx
	movl	%ecx, %esi
	movl	%edi, -4(%rbp)
	movl	%eax, %edi
	callq	_main
	## InlineAsm Start
	movq	$2097153, %rax          ## imm = 0x200001
	movq	$0, %rdi
	syscall
	## InlineAsm End
	movl	%eax, -8(%rbp)          ## 4-byte Spill
	addq	$16, %rsp
	popq	%rbp
	retq
	.cfi_endproc
                                        ## -- End function

.subsections_via_symbols
